target datalayout = "e-m:e-p270:32:32-p271:32:32-p272:64:64-i64:64-i128:128-f80:128-n8:16:32:64-S128"
target triple = "x86_64-pc-linux-gnu"

@bench_all = internal global i32 1, align 4
@bench_asym_algs = internal global i32 0, align 4

; Function Attrs: nounwind uwtable
define dso_local void @bench_ecc_curve(i32 noundef %0) #0 {
  %2 = alloca i32, align 4
  store i32 %0, ptr %2, align 4, !tbaa !4
  %3 = load i32, ptr @bench_all, align 4, !tbaa !4
  %4 = icmp ne i32 %3, 0
  br i1 %4, label %9, label %5

5:                                                ; preds = %1
  %6 = load i32, ptr @bench_asym_algs, align 4, !tbaa !4
  %7 = and i32 %6, 4096
  %8 = icmp ne i32 %7, 0
  br i1 %8, label %9, label %11

9:                                                ; preds = %5, %1
  %10 = load i32, ptr %2, align 4, !tbaa !4
  call void @bench_eccMakeKey(i32 noundef 0, i32 noundef %10)
  br label %11

11:                                               ; preds = %9, %5
  %12 = load i32, ptr @bench_all, align 4, !tbaa !4
  %13 = icmp ne i32 %12, 0
  br i1 %13, label %18, label %14

14:                                               ; preds = %11
  %15 = load i32, ptr @bench_asym_algs, align 4, !tbaa !4
  %16 = and i32 %15, 8192
  %17 = icmp ne i32 %16, 0
  br i1 %17, label %18, label %20

18:                                               ; preds = %14, %11
  %19 = load i32, ptr %2, align 4, !tbaa !4
  call void @bench_ecc(i32 noundef 0, i32 noundef %19)
  br label %20

20:                                               ; preds = %18, %14
  ret void
}