; Function Attrs: nounwind uwtable
define dso_local void @bench_ecc_curve(i32 noundef %0) local_unnamed_addr #0 {
  %.b2 = load i1, ptr @bench_all, align 4
  br i1 %.b2, label %2, label %5

2:                                                ; preds = %1
  %3 = load i32, ptr @bench_asym_algs, align 4, !tbaa !4
  %4 = and i32 %3, 4096
  %.not = icmp eq i32 %4, 0
  br i1 %.not, label %.thread, label %5

5:                                                ; preds = %1, %2
  tail call void @bench_eccMakeKey(i32 poison, i32 noundef %0)
  %.b.pr = load i1, ptr @bench_all, align 4
  br i1 %.b.pr, label %..thread_crit_edge, label %8

..thread_crit_edge:                               ; preds = %5
  %.pre = load i32, ptr @bench_asym_algs, align 4, !tbaa !4
  br label %.thread

.thread:                                          ; preds = %..thread_crit_edge, %2
  %6 = phi i32 [ %.pre, %..thread_crit_edge ], [ %3, %2 ]
  %7 = and i32 %6, 8192
  %.not3 = icmp eq i32 %7, 0
  br i1 %.not3, label %9, label %8

8:                                                ; preds = %.thread, %5
  tail call void @bench_ecc(i32 poison, i32 noundef %0)
  br label %9

9:                                                ; preds = %8, %.thread
  ret void
}